; Function Attrs: cold nounwind optsize uwtable
define internal noundef i32 @xpm_decode_close(ptr noundef readonly captures(none) %0) #1 {
  %2 = getelementptr inbounds nuw i8, ptr %0, i64 32
  %3 = load ptr, ptr %2, align 8, !tbaa !4
  tail call void @av_freep(ptr noundef %3) #11
  %4 = getelementptr inbounds nuw i8, ptr %3, i64 16
  tail call void @av_freep(ptr noundef nonnull %4) #11
  %5 = getelementptr inbounds nuw i8, ptr %3, i64 24
  store i32 0, ptr %5, align 8, !tbaa !49
  ret i32 0
}